LX51 LINKER/LOCATER V4.41                                                               05/02/2013  19:30:42  PAGE 1


LX51 LINKER/LOCATER V4.41, INVOKED BY:
C:\KEIL\C51\BIN\LX51.EXE STARTUP.OBJ, APP.OBJ TO APP PRINT (app.map) CLASSES (XDATA (X:0XE000-X:0XFF00), IDATA (I:0-I:0X
>> FF)) REGFILE (app.reg) 


CPU MODE:     8051 MODE
MEMORY MODEL: LARGE


INPUT MODULES INCLUDED:
  STARTUP.OBJ (?C_STARTUP)
         COMMENT TYPE 1: A51 / ASM51 Assembler
  APP.OBJ (APP)
         COMMENT TYPE 1: C51 Compiler
  C:\KEIL\C51\LIB\C51L.LIB (?C?MEMSET)
         COMMENT TYPE 1: A51 / ASM51 Assembler


ACTIVE MEMORY CLASSES OF MODULE:  APP (?C_STARTUP)

BASE        START       END         USED      MEMORY CLASS
==========================================================
X:000000H   X:00E000H   X:00FF00H   00000BH   XDATA
I:000000H   I:000000H   I:0000FFH   000001H   IDATA
C:000000H   C:000000H   C:00FFFFH   000394H   CODE
I:000000H   I:000000H   I:00007FH   000008H   DATA


MEMORY MAP OF MODULE:  APP (?C_STARTUP)


START     STOP      LENGTH    ALIGN  RELOC    MEMORY CLASS   SEGMENT NAME
=========================================================================

* * * * * * * * * * *   D A T A   M E M O R Y   * * * * * * * * * * * * *
000000H   000007H   000008H   ---    AT..     DATA           "REG BANK 0"
000008H   000008H   000001H   BYTE   UNIT     IDATA          ?STACK

* * * * * * * * * * *   C O D E   M E M O R Y   * * * * * * * * * * * * *
000000H   000002H   000003H   ---    OFFS..   CODE           ?CO??C_STARTUP?0
000003H   00003BH   000039H   BYTE   UNIT     CODE           ?PR?SCHEDULERBASICP__POPTASK?APP
00003CH   00006EH   000033H   BYTE   UNIT     CODE           ?PR?MAIN?APP
00006FH   00009AH   00002CH   BYTE   UNIT     CODE           ?C?LIB_CODE
00009BH   0000C4H   00002AH   BYTE   UNIT     CODE           ?PR?_SCHEDULERBASICP__PUSHTASK?APP
0000C5H   0000EEH   00002AH   BYTE   UNIT     CODE           ?PR?SCHEDULERBASICP__SCHEDULER__TASKLOOP?APP
0000EFH   000117H   000029H   BYTE   UNIT     CODE           ?PR?_SCHEDULERBASICP__TASKBASIC__POSTTASK?APP
000118H   000139H   000022H   BYTE   UNIT     CODE           ?PR?TESTLEDPINC__DELAY__RUNTASK?APP
00013AH   00015AH   000021H   BYTE   UNIT     CODE           ?PR?_SCHEDULERBASICP__TASKBASIC__RUNTASK?APP
00015BH   000176H   00001CH   BYTE   UNIT     CODE           ?PR?_SCHEDULERBASICP__ISWAITING?APP
000177H   000191H   00001BH   BYTE   UNIT     CODE           ?PR?SPEC4LEDSP__INIT__INIT?APP
000192H   0001ABH   00001AH   BYTE   UNIT     CODE           ?PR?SCHEDULERBASICP__SCHEDULER__INIT?APP
0001ACH   0001C1H   000016H   BYTE   UNIT     CODE           ?PR?PLATFORMP__INIT__INIT?APP
0001C2H   0001D6H   000015H   BYTE   UNIT     CODE           ?PR?LEDSP__INIT__INIT?APP
0001D7H   0001EAH   000014H   BYTE   UNIT     CODE           ?PR?SCHEDULERBASICP__SCHEDULER__RUNNEXTTASK?APP
0001EBH   0001FCH   000012H   BYTE   UNIT     CODE           ?PR?TESTLEDPINC__LIGHTON__RUNTASK?APP
0001FDH   00020EH   000012H   BYTE   UNIT     CODE           ?PR?TESTLEDPINC__TOGGLE__RUNTASK?APP
00020FH   00021BH   00000DH   BYTE   UNIT     CODE           ?PR?HPLMCS51GENERALIOC__P10__TOGGLE?APP
00021CH   000228H   00000DH   BYTE   UNIT     CODE           ?PR?HPLMCS51GENERALIOC__P11__TOGGLE?APP
000229H   000235H   00000DH   BYTE   UNIT     CODE           ?PR?HPLMCS51GENERALIOC__P14__TOGGLE?APP
000236H   000242H   00000DH   BYTE   UNIT     CODE           ?PR?HPLMCS51GENERALIOC__P15__TOGGLE?APP
000243H   00024FH   00000DH   BYTE   UNIT     CODE           ?PR?HPLMCS51GENERALIOC__P16__TOGGLE?APP
000250H   00025CH   00000DH   BYTE   UNIT     CODE           ?PR?HPLMCS51GENERALIOC__P17__TOGGLE?APP
00025DH   000268H   00000CH   BYTE   UNIT     CODE           ?C_C51STARTUP
000269H   000271H   000009H   BYTE   UNIT     CODE           ?PR?MCUSLEEPC__MCUSLEEP__SLEEP?APP
000272H   000279H   000008H   BYTE   UNIT     CODE           ?PR?__NESC_ATOMIC_START?APP
00027AH   00027FH   000006H   BYTE   UNIT     CODE           ?PR?___NESC_ATOMIC_END?APP
LX51 LINKER/LOCATER V4.41                                                             05/02/2013  19:30:42  PAGE 2


000280H   000285H   000006H   BYTE   UNIT     CODE           ?PR?TESTLEDPINC__TOGGLE__POSTTASK?APP
000286H   00028BH   000006H   BYTE   UNIT     CODE           ?PR?TESTLEDPINC__DELAY__POSTTASK?APP
00028CH   000291H   000006H   BYTE   UNIT     CODE           ?PR?TESTLEDPINC__LIGHTON__POSTTASK?APP
000292H   000297H   000006H   BYTE   UNIT     CODE           ?PR?TESTLEDPINC__BOOT__BOOTED?APP
000298H   00029DH   000006H   BYTE   UNIT     CODE           ?PR?_SCHEDULERBASICP__TASKBASIC__DEFAULT__RUNTASK?APP
00029EH   0002A1H   000004H   BYTE   UNIT     CODE           ?PR?HPLMCS51GENERALIOC__P11__MAKEOUTPUT?APP
0002A2H   0002A5H   000004H   BYTE   UNIT     CODE           ?PR?HPLMCS51GENERALIOC__P10__MAKEOUTPUT?APP
0002A6H   0002A9H   000004H   BYTE   UNIT     CODE           ?PR?PLATFORMP__LEDSINIT__INIT?APP
0002AAH   0002ADH   000004H   BYTE   UNIT     CODE           ?PR?REALMAINP__PLATFORMINIT__INIT?APP
0002AEH   0002B1H   000004H   BYTE   UNIT     CODE           ?PR?REALMAINP__SCHEDULER__RUNNEXTTASK?APP
0002B2H   0002B5H   000004H   BYTE   UNIT     CODE           ?PR?HPLMCS51GENERALIOC__P17__MAKEOUTPUT?APP
0002B6H   0002B9H   000004H   BYTE   UNIT     CODE           ?PR?HPLMCS51GENERALIOC__P16__MAKEOUTPUT?APP
0002BAH   0002BDH   000004H   BYTE   UNIT     CODE           ?PR?HPLMCS51GENERALIOC__P15__MAKEOUTPUT?APP
0002BEH   0002C1H   000004H   BYTE   UNIT     CODE           ?PR?HPLMCS51GENERALIOC__P14__MAKEOUTPUT?APP
0002C2H   0002C5H   000004H   BYTE   UNIT     CODE           ?PR?REALMAINP__SOFTWAREINIT__INIT?APP
0002C6H   0002C8H   000003H   BYTE   UNIT     CODE           ?PR?REALMAINP__SCHEDULER__INIT?APP
0002C9H   0002CBH   000003H   BYTE   UNIT     CODE           ?PR?LEDSP__LED2__SET?APP
0002CCH   0002CEH   000003H   BYTE   UNIT     CODE           ?PR?HPLMCS51GENERALIOC__P11__SET?APP
0002CFH   0002D1H   000003H   BYTE   UNIT     CODE           ?PR?LEDSP__LED1__SET?APP
0002D2H   0002D4H   000003H   BYTE   UNIT     CODE           ?PR?HPLMCS51GENERALIOC__P10__SET?APP
0002D5H   0002D7H   000003H   BYTE   UNIT     CODE           ?PR?LEDSP__LED0__SET?APP
0002D8H   0002DAH   000003H   BYTE   UNIT     CODE           ?PR?LEDSP__LED2__MAKEOUTPUT?APP
0002DBH   0002DDH   000003H   BYTE   UNIT     CODE           ?PR?LEDSP__LED1__MAKEOUTPUT?APP
0002DEH   0002E0H   000003H   BYTE   UNIT     CODE           ?PR?LEDSP__LED0__MAKEOUTPUT?APP
0002E1H   0002E3H   000003H   BYTE   UNIT     CODE           ?PR?HPLMCS51GENERALIOC__P10__CLR?APP
0002E4H   0002E6H   000003H   BYTE   UNIT     CODE           ?PR?LEDSP__LED0__CLR?APP
0002E7H   0002E9H   000003H   BYTE   UNIT     CODE           ?PR?LEDSP__LEDS__LED0ON?APP
0002EAH   0002ECH   000003H   BYTE   UNIT     CODE           ?PR?TESTLEDPINC__LEDS__LED0ON?APP
0002EDH   0002EFH   000003H   BYTE   UNIT     CODE           ?PR?HPLMCS51GENERALIOC__P11__CLR?APP
0002F0H   0002F2H   000003H   BYTE   UNIT     CODE           ?PR?LEDSP__LED1__CLR?APP
0002F3H   0002F5H   000003H   BYTE   UNIT     CODE           ?PR?LEDSP__LEDS__LED1ON?APP
0002F6H   0002F8H   000003H   BYTE   UNIT     CODE           ?PR?TESTLEDPINC__LEDS__LED1ON?APP
0002F9H   0002FBH   000003H   BYTE   UNIT     CODE           ?PR?HPLMCS51GENERALIOC__P14__CLR?APP
0002FCH   0002FEH   000003H   BYTE   UNIT     CODE           ?PR?SPEC4LEDSP__LED0__CLR?APP
0002FFH   000301H   000003H   BYTE   UNIT     CODE           ?PR?SPEC4LEDSP__SPEC4LEDS__LED0ON?APP
000302H   000304H   000003H   BYTE   UNIT     CODE           ?PR?TESTLEDPINC__SPEC4LEDS__LED0ON?APP
000305H   000307H   000003H   BYTE   UNIT     CODE           ?PR?HPLMCS51GENERALIOC__P15__CLR?APP
000308H   00030AH   000003H   BYTE   UNIT     CODE           ?PR?SPEC4LEDSP__LED1__CLR?APP
00030BH   00030DH   000003H   BYTE   UNIT     CODE           ?PR?SPEC4LEDSP__SPEC4LEDS__LED1ON?APP
00030EH   000310H   000003H   BYTE   UNIT     CODE           ?PR?TESTLEDPINC__SPEC4LEDS__LED1ON?APP
000311H   000313H   000003H   BYTE   UNIT     CODE           ?PR?HPLMCS51GENERALIOC__P16__CLR?APP
000314H   000316H   000003H   BYTE   UNIT     CODE           ?PR?SPEC4LEDSP__LED2__CLR?APP
000317H   000319H   000003H   BYTE   UNIT     CODE           ?PR?SPEC4LEDSP__SPEC4LEDS__LED2ON?APP
00031AH   00031CH   000003H   BYTE   UNIT     CODE           ?PR?TESTLEDPINC__SPEC4LEDS__LED2ON?APP
00031DH   00031FH   000003H   BYTE   UNIT     CODE           ?PR?HPLMCS51GENERALIOC__P17__CLR?APP
000320H   000322H   000003H   BYTE   UNIT     CODE           ?PR?SPEC4LEDSP__LED3__CLR?APP
000323H   000325H   000003H   BYTE   UNIT     CODE           ?PR?SPEC4LEDSP__SPEC4LEDS__LED3ON?APP
000326H   000328H   000003H   BYTE   UNIT     CODE           ?PR?TESTLEDPINC__SPEC4LEDS__LED3ON?APP
000329H   00032BH   000003H   BYTE   UNIT     CODE           ?PR?LEDSP__LED0__TOGGLE?APP
00032CH   00032EH   000003H   BYTE   UNIT     CODE           ?PR?LEDSP__LEDS__LED0TOGGLE?APP
00032FH   000331H   000003H   BYTE   UNIT     CODE           ?PR?TESTLEDPINC__LEDS__LED0TOGGLE?APP
000332H   000334H   000003H   BYTE   UNIT     CODE           ?PR?LEDSP__LED1__TOGGLE?APP
000335H   000337H   000003H   BYTE   UNIT     CODE           ?PR?LEDSP__LEDS__LED1TOGGLE?APP
000338H   00033AH   000003H   BYTE   UNIT     CODE           ?PR?TESTLEDPINC__LEDS__LED1TOGGLE?APP
00033BH   00033DH   000003H   BYTE   UNIT     CODE           ?PR?SPEC4LEDSP__LED0__TOGGLE?APP
00033EH   000340H   000003H   BYTE   UNIT     CODE           ?PR?SPEC4LEDSP__SPEC4LEDS__LED0TOGGLE?APP
000341H   000343H   000003H   BYTE   UNIT     CODE           ?PR?TESTLEDPINC__SPEC4LEDS__LED0TOGGLE?APP
000344H   000346H   000003H   BYTE   UNIT     CODE           ?PR?SPEC4LEDSP__LED1__TOGGLE?APP
000347H   000349H   000003H   BYTE   UNIT     CODE           ?PR?SPEC4LEDSP__SPEC4LEDS__LED1TOGGLE?APP
00034AH   00034CH   000003H   BYTE   UNIT     CODE           ?PR?TESTLEDPINC__SPEC4LEDS__LED1TOGGLE?APP
00034DH   00034FH   000003H   BYTE   UNIT     CODE           ?PR?SPEC4LEDSP__LED2__TOGGLE?APP
000350H   000352H   000003H   BYTE   UNIT     CODE           ?PR?SPEC4LEDSP__SPEC4LEDS__LED2TOGGLE?APP
000353H   000355H   000003H   BYTE   UNIT     CODE           ?PR?TESTLEDPINC__SPEC4LEDS__LED2TOGGLE?APP
000356H   000358H   000003H   BYTE   UNIT     CODE           ?PR?SPEC4LEDSP__LED3__TOGGLE?APP
000359H   00035BH   000003H   BYTE   UNIT     CODE           ?PR?SPEC4LEDSP__SPEC4LEDS__LED3TOGGLE?APP
LX51 LINKER/LOCATER V4.41                                                             05/02/2013  19:30:42  PAGE 3


00035CH   00035EH   000003H   BYTE   UNIT     CODE           ?PR?TESTLEDPINC__SPEC4LEDS__LED3TOGGLE?APP
00035FH   000361H   000003H   BYTE   UNIT     CODE           ?PR?HPLMCS51GENERALIOC__P17__SET?APP
000362H   000364H   000003H   BYTE   UNIT     CODE           ?PR?SPEC4LEDSP__LED3__SET?APP
000365H   000367H   000003H   BYTE   UNIT     CODE           ?PR?HPLMCS51GENERALIOC__P16__SET?APP
000368H   00036AH   000003H   BYTE   UNIT     CODE           ?PR?SPEC4LEDSP__LED2__SET?APP
00036BH   00036DH   000003H   BYTE   UNIT     CODE           ?PR?HPLMCS51GENERALIOC__P15__SET?APP
00036EH   000370H   000003H   BYTE   UNIT     CODE           ?PR?SPEC4LEDSP__LED1__SET?APP
000371H   000373H   000003H   BYTE   UNIT     CODE           ?PR?HPLMCS51GENERALIOC__P14__SET?APP
000374H   000376H   000003H   BYTE   UNIT     CODE           ?PR?SPEC4LEDSP__LED0__SET?APP
000377H   000379H   000003H   BYTE   UNIT     CODE           ?PR?SPEC4LEDSP__LED3__MAKEOUTPUT?APP
00037AH   00037CH   000003H   BYTE   UNIT     CODE           ?PR?SPEC4LEDSP__LED2__MAKEOUTPUT?APP
00037DH   00037FH   000003H   BYTE   UNIT     CODE           ?PR?SPEC4LEDSP__LED1__MAKEOUTPUT?APP
000380H   000382H   000003H   BYTE   UNIT     CODE           ?PR?SPEC4LEDSP__LED0__MAKEOUTPUT?APP
000383H   000385H   000003H   BYTE   UNIT     CODE           ?PR?REALMAINP__BOOT__BOOTED?APP
000386H   000388H   000003H   BYTE   UNIT     CODE           ?PR?__NESC_DISABLE_INTERRUPT?APP
000389H   00038BH   000003H   BYTE   UNIT     CODE           ?PR?__NESC_ENABLE_INTERRUPT?APP
00038CH   00038EH   000003H   BYTE   UNIT     CODE           ?PR?SCHEDULERBASICP__MCUSLEEP__SLEEP?APP
00038FH   000391H   000003H   BYTE   UNIT     CODE           ?PR?REALMAINP__SCHEDULER__TASKLOOP?APP
000392H   000392H   000001H   BYTE   UNIT     CODE           ?PR?NOPINC__0__GENERALIO__SET?APP
000393H   000393H   000001H   BYTE   UNIT     CODE           ?PR?NOPINC__0__GENERALIO__MAKEOUTPUT?APP

* * * * * * * * * * *  X D A T A   M E M O R Y  * * * * * * * * * * * * *
00E000H   00E005H   000006H   BYTE   UNIT     XDATA          _XDATA_GROUP_
00E006H   00E00AH   000005H   BYTE   UNIT     XDATA          ?XD?APP



OVERLAY MAP OF MODULE:   APP (?C_STARTUP)


FUNCTION/MODULE                               XDATA_GROUP
--> CALLED FUNCTION/MODULE                    START  STOP
=========================================================
?C_C51STARTUP                                 ----- -----
  +--> ?PR?MAIN?APP

MAIN/APP                                      E000H E000H
  +--> ?PR?__NESC_ATOMIC_START?APP
  +--> ?PR?REALMAINP__SCHEDULER__INIT?APP
  +--> ?PR?REALMAINP__PLATFORMINIT__INIT?APP
  +--> ?PR?REALMAINP__SCHEDULER__RUNNEXTTASK...
  +--> ?PR?REALMAINP__SOFTWAREINIT__INIT?APP
  +--> ?PR?___NESC_ATOMIC_END?APP
  +--> ?PR?__NESC_ENABLE_INTERRUPT?APP
  +--> ?PR?REALMAINP__BOOT__BOOTED?APP
  +--> ?PR?REALMAINP__SCHEDULER__TASKLOOP?APP

__NESC_ATOMIC_START/APP                       ----- -----

REALMAINP__SCHEDULER__INIT/APP                ----- -----
  +--> ?PR?SCHEDULERBASICP__SCHEDULER__INIT?APP

SCHEDULERBASICP__SCHEDULER__INIT/APP          ----- -----

REALMAINP__PLATFORMINIT__INIT/APP             ----- -----
  +--> ?PR?PLATFORMP__INIT__INIT?APP

PLATFORMP__INIT__INIT/APP                     ----- -----
  +--> ?PR?PLATFORMP__LEDSINIT__INIT?APP

PLATFORMP__LEDSINIT__INIT/APP                 ----- -----
  +--> ?PR?LEDSP__INIT__INIT?APP

LEDSP__INIT__INIT/APP                         ----- -----
  +--> ?PR?LEDSP__LED0__MAKEOUTPUT?APP
LX51 LINKER/LOCATER V4.41                                                             05/02/2013  19:30:42  PAGE 4


  +--> ?PR?LEDSP__LED1__MAKEOUTPUT?APP
  +--> ?PR?LEDSP__LED2__MAKEOUTPUT?APP
  +--> ?PR?LEDSP__LED0__SET?APP
  +--> ?PR?LEDSP__LED1__SET?APP
  +--> ?PR?LEDSP__LED2__SET?APP

LEDSP__LED0__MAKEOUTPUT/APP                   ----- -----
  +--> ?PR?HPLMCS51GENERALIOC__P10__MAKEOUTP...

HPLMCS51GENERALIOC__P10__MAKEOUTPUT/APP       ----- -----

LEDSP__LED1__MAKEOUTPUT/APP                   ----- -----
  +--> ?PR?HPLMCS51GENERALIOC__P11__MAKEOUTP...

HPLMCS51GENERALIOC__P11__MAKEOUTPUT/APP       ----- -----

LEDSP__LED2__MAKEOUTPUT/APP                   ----- -----
  +--> ?PR?NOPINC__0__GENERALIO__MAKEOUTPUT?APP

NOPINC__0__GENERALIO__MAKEOUTPUT/APP          ----- -----

LEDSP__LED0__SET/APP                          ----- -----
  +--> ?PR?HPLMCS51GENERALIOC__P10__SET?APP

HPLMCS51GENERALIOC__P10__SET/APP              ----- -----

LEDSP__LED1__SET/APP                          ----- -----
  +--> ?PR?HPLMCS51GENERALIOC__P11__SET?APP

HPLMCS51GENERALIOC__P11__SET/APP              ----- -----

LEDSP__LED2__SET/APP                          ----- -----
  +--> ?PR?NOPINC__0__GENERALIO__SET?APP

NOPINC__0__GENERALIO__SET/APP                 ----- -----

REALMAINP__SCHEDULER__RUNNEXTTASK/APP         ----- -----
  +--> ?PR?SCHEDULERBASICP__SCHEDULER__RUNNE...

SCHEDULERBASICP__SCHEDULER__RUNNEXTTA...      E001H E001H
  +--> ?PR?SCHEDULERBASICP__POPTASK?APP
  +--> ?PR?_SCHEDULERBASICP__TASKBASIC__RUNT...

SCHEDULERBASICP__POPTASK/APP                  E003H E003H

_SCHEDULERBASICP__TASKBASIC__RUNTASK/APP      E003H E003H
  +--> ?PR?TESTLEDPINC__TOGGLE__RUNTASK?APP
  +--> ?PR?TESTLEDPINC__DELAY__RUNTASK?APP
  +--> ?PR?TESTLEDPINC__LIGHTON__RUNTASK?APP
  +--> ?PR?_SCHEDULERBASICP__TASKBASIC__DEFA...

TESTLEDPINC__TOGGLE__RUNTASK/APP              ----- -----
  +--> ?PR?TESTLEDPINC__LEDS__LED0TOGGLE?APP
  +--> ?PR?TESTLEDPINC__LEDS__LED1TOGGLE?APP
  +--> ?PR?TESTLEDPINC__SPEC4LEDS__LED0TOGGL...
  +--> ?PR?TESTLEDPINC__SPEC4LEDS__LED1TOGGL...
  +--> ?PR?TESTLEDPINC__SPEC4LEDS__LED2TOGGL...
  +--> ?PR?TESTLEDPINC__SPEC4LEDS__LED3TOGGL...

TESTLEDPINC__LEDS__LED0TOGGLE/APP             ----- -----
  +--> ?PR?LEDSP__LEDS__LED0TOGGLE?APP

LEDSP__LEDS__LED0TOGGLE/APP                   ----- -----
  +--> ?PR?LEDSP__LED0__TOGGLE?APP

LX51 LINKER/LOCATER V4.41                                                             05/02/2013  19:30:42  PAGE 5


LEDSP__LED0__TOGGLE/APP                       ----- -----
  +--> ?PR?HPLMCS51GENERALIOC__P10__TOGGLE?APP

HPLMCS51GENERALIOC__P10__TOGGLE/APP           E004H E004H
  +--> ?PR?__NESC_ATOMIC_START?APP
  +--> ?PR?___NESC_ATOMIC_END?APP

___NESC_ATOMIC_END/APP                        ----- -----

TESTLEDPINC__LEDS__LED1TOGGLE/APP             ----- -----
  +--> ?PR?LEDSP__LEDS__LED1TOGGLE?APP

LEDSP__LEDS__LED1TOGGLE/APP                   ----- -----
  +--> ?PR?LEDSP__LED1__TOGGLE?APP

LEDSP__LED1__TOGGLE/APP                       ----- -----
  +--> ?PR?HPLMCS51GENERALIOC__P11__TOGGLE?APP

HPLMCS51GENERALIOC__P11__TOGGLE/APP           E004H E004H
  +--> ?PR?__NESC_ATOMIC_START?APP
  +--> ?PR?___NESC_ATOMIC_END?APP

TESTLEDPINC__SPEC4LEDS__LED0TOGGLE/APP        ----- -----
  +--> ?PR?SPEC4LEDSP__SPEC4LEDS__LED0TOGGLE...

SPEC4LEDSP__SPEC4LEDS__LED0TOGGLE/APP         ----- -----
  +--> ?PR?SPEC4LEDSP__LED0__TOGGLE?APP

SPEC4LEDSP__LED0__TOGGLE/APP                  ----- -----
  +--> ?PR?HPLMCS51GENERALIOC__P14__TOGGLE?APP

HPLMCS51GENERALIOC__P14__TOGGLE/APP           E004H E004H
  +--> ?PR?__NESC_ATOMIC_START?APP
  +--> ?PR?___NESC_ATOMIC_END?APP

TESTLEDPINC__SPEC4LEDS__LED1TOGGLE/APP        ----- -----
  +--> ?PR?SPEC4LEDSP__SPEC4LEDS__LED1TOGGLE...

SPEC4LEDSP__SPEC4LEDS__LED1TOGGLE/APP         ----- -----
  +--> ?PR?SPEC4LEDSP__LED1__TOGGLE?APP

SPEC4LEDSP__LED1__TOGGLE/APP                  ----- -----
  +--> ?PR?HPLMCS51GENERALIOC__P15__TOGGLE?APP

HPLMCS51GENERALIOC__P15__TOGGLE/APP           E004H E004H
  +--> ?PR?__NESC_ATOMIC_START?APP
  +--> ?PR?___NESC_ATOMIC_END?APP

TESTLEDPINC__SPEC4LEDS__LED2TOGGLE/APP        ----- -----
  +--> ?PR?SPEC4LEDSP__SPEC4LEDS__LED2TOGGLE...

SPEC4LEDSP__SPEC4LEDS__LED2TOGGLE/APP         ----- -----
  +--> ?PR?SPEC4LEDSP__LED2__TOGGLE?APP

SPEC4LEDSP__LED2__TOGGLE/APP                  ----- -----
  +--> ?PR?HPLMCS51GENERALIOC__P16__TOGGLE?APP

HPLMCS51GENERALIOC__P16__TOGGLE/APP           E004H E004H
  +--> ?PR?__NESC_ATOMIC_START?APP
  +--> ?PR?___NESC_ATOMIC_END?APP

TESTLEDPINC__SPEC4LEDS__LED3TOGGLE/APP        ----- -----
  +--> ?PR?SPEC4LEDSP__SPEC4LEDS__LED3TOGGLE...

SPEC4LEDSP__SPEC4LEDS__LED3TOGGLE/APP         ----- -----
LX51 LINKER/LOCATER V4.41                                                             05/02/2013  19:30:42  PAGE 6


  +--> ?PR?SPEC4LEDSP__LED3__TOGGLE?APP

SPEC4LEDSP__LED3__TOGGLE/APP                  ----- -----
  +--> ?PR?HPLMCS51GENERALIOC__P17__TOGGLE?APP

HPLMCS51GENERALIOC__P17__TOGGLE/APP           E004H E004H
  +--> ?PR?__NESC_ATOMIC_START?APP
  +--> ?PR?___NESC_ATOMIC_END?APP

TESTLEDPINC__DELAY__RUNTASK/APP               ----- -----
  +--> ?PR?TESTLEDPINC__TOGGLE__POSTTASK?APP
  +--> ?PR?TESTLEDPINC__DELAY__POSTTASK?APP

TESTLEDPINC__TOGGLE__POSTTASK/APP             ----- -----
  +--> ?PR?_SCHEDULERBASICP__TASKBASIC__POST...

_SCHEDULERBASICP__TASKBASIC__POSTTASK...      E004H E005H
  +--> ?PR?__NESC_ATOMIC_START?APP
  +--> ?PR?_SCHEDULERBASICP__PUSHTASK?APP
  +--> ?PR?___NESC_ATOMIC_END?APP

_SCHEDULERBASICP__PUSHTASK/APP                ----- -----
  +--> ?PR?_SCHEDULERBASICP__ISWAITING?APP

_SCHEDULERBASICP__ISWAITING/APP               ----- -----

TESTLEDPINC__DELAY__POSTTASK/APP              ----- -----
  +--> ?PR?_SCHEDULERBASICP__TASKBASIC__POST...

TESTLEDPINC__LIGHTON__RUNTASK/APP             ----- -----
  +--> ?PR?TESTLEDPINC__LEDS__LED0ON?APP
  +--> ?PR?TESTLEDPINC__LEDS__LED1ON?APP
  +--> ?PR?TESTLEDPINC__SPEC4LEDS__LED0ON?APP
  +--> ?PR?TESTLEDPINC__SPEC4LEDS__LED1ON?APP
  +--> ?PR?TESTLEDPINC__SPEC4LEDS__LED2ON?APP
  +--> ?PR?TESTLEDPINC__SPEC4LEDS__LED3ON?APP

TESTLEDPINC__LEDS__LED0ON/APP                 ----- -----
  +--> ?PR?LEDSP__LEDS__LED0ON?APP

LEDSP__LEDS__LED0ON/APP                       ----- -----
  +--> ?PR?LEDSP__LED0__CLR?APP

LEDSP__LED0__CLR/APP                          ----- -----
  +--> ?PR?HPLMCS51GENERALIOC__P10__CLR?APP

HPLMCS51GENERALIOC__P10__CLR/APP              ----- -----

TESTLEDPINC__LEDS__LED1ON/APP                 ----- -----
  +--> ?PR?LEDSP__LEDS__LED1ON?APP

LEDSP__LEDS__LED1ON/APP                       ----- -----
  +--> ?PR?LEDSP__LED1__CLR?APP

LEDSP__LED1__CLR/APP                          ----- -----
  +--> ?PR?HPLMCS51GENERALIOC__P11__CLR?APP

HPLMCS51GENERALIOC__P11__CLR/APP              ----- -----

TESTLEDPINC__SPEC4LEDS__LED0ON/APP            ----- -----
  +--> ?PR?SPEC4LEDSP__SPEC4LEDS__LED0ON?APP

SPEC4LEDSP__SPEC4LEDS__LED0ON/APP             ----- -----
  +--> ?PR?SPEC4LEDSP__LED0__CLR?APP

LX51 LINKER/LOCATER V4.41                                                             05/02/2013  19:30:42  PAGE 7


SPEC4LEDSP__LED0__CLR/APP                     ----- -----
  +--> ?PR?HPLMCS51GENERALIOC__P14__CLR?APP

HPLMCS51GENERALIOC__P14__CLR/APP              ----- -----

TESTLEDPINC__SPEC4LEDS__LED1ON/APP            ----- -----
  +--> ?PR?SPEC4LEDSP__SPEC4LEDS__LED1ON?APP

SPEC4LEDSP__SPEC4LEDS__LED1ON/APP             ----- -----
  +--> ?PR?SPEC4LEDSP__LED1__CLR?APP

SPEC4LEDSP__LED1__CLR/APP                     ----- -----
  +--> ?PR?HPLMCS51GENERALIOC__P15__CLR?APP

HPLMCS51GENERALIOC__P15__CLR/APP              ----- -----

TESTLEDPINC__SPEC4LEDS__LED2ON/APP            ----- -----
  +--> ?PR?SPEC4LEDSP__SPEC4LEDS__LED2ON?APP

SPEC4LEDSP__SPEC4LEDS__LED2ON/APP             ----- -----
  +--> ?PR?SPEC4LEDSP__LED2__CLR?APP

SPEC4LEDSP__LED2__CLR/APP                     ----- -----
  +--> ?PR?HPLMCS51GENERALIOC__P16__CLR?APP

HPLMCS51GENERALIOC__P16__CLR/APP              ----- -----

TESTLEDPINC__SPEC4LEDS__LED3ON/APP            ----- -----
  +--> ?PR?SPEC4LEDSP__SPEC4LEDS__LED3ON?APP

SPEC4LEDSP__SPEC4LEDS__LED3ON/APP             ----- -----
  +--> ?PR?SPEC4LEDSP__LED3__CLR?APP

SPEC4LEDSP__LED3__CLR/APP                     ----- -----
  +--> ?PR?HPLMCS51GENERALIOC__P17__CLR?APP

HPLMCS51GENERALIOC__P17__CLR/APP              ----- -----

_SCHEDULERBASICP__TASKBASIC__DEFAULT_...      E004H E004H

REALMAINP__SOFTWAREINIT__INIT/APP             ----- -----
  +--> ?PR?SPEC4LEDSP__INIT__INIT?APP

SPEC4LEDSP__INIT__INIT/APP                    ----- -----
  +--> ?PR?SPEC4LEDSP__LED0__MAKEOUTPUT?APP
  +--> ?PR?SPEC4LEDSP__LED1__MAKEOUTPUT?APP
  +--> ?PR?SPEC4LEDSP__LED2__MAKEOUTPUT?APP
  +--> ?PR?SPEC4LEDSP__LED3__MAKEOUTPUT?APP
  +--> ?PR?SPEC4LEDSP__LED0__SET?APP
  +--> ?PR?SPEC4LEDSP__LED1__SET?APP
  +--> ?PR?SPEC4LEDSP__LED2__SET?APP
  +--> ?PR?SPEC4LEDSP__LED3__SET?APP

SPEC4LEDSP__LED0__MAKEOUTPUT/APP              ----- -----
  +--> ?PR?HPLMCS51GENERALIOC__P14__MAKEOUTP...

HPLMCS51GENERALIOC__P14__MAKEOUTPUT/APP       ----- -----

SPEC4LEDSP__LED1__MAKEOUTPUT/APP              ----- -----
  +--> ?PR?HPLMCS51GENERALIOC__P15__MAKEOUTP...

HPLMCS51GENERALIOC__P15__MAKEOUTPUT/APP       ----- -----

SPEC4LEDSP__LED2__MAKEOUTPUT/APP              ----- -----
  +--> ?PR?HPLMCS51GENERALIOC__P16__MAKEOUTP...
LX51 LINKER/LOCATER V4.41                                                             05/02/2013  19:30:42  PAGE 8



HPLMCS51GENERALIOC__P16__MAKEOUTPUT/APP       ----- -----

SPEC4LEDSP__LED3__MAKEOUTPUT/APP              ----- -----
  +--> ?PR?HPLMCS51GENERALIOC__P17__MAKEOUTP...

HPLMCS51GENERALIOC__P17__MAKEOUTPUT/APP       ----- -----

SPEC4LEDSP__LED0__SET/APP                     ----- -----
  +--> ?PR?HPLMCS51GENERALIOC__P14__SET?APP

HPLMCS51GENERALIOC__P14__SET/APP              ----- -----

SPEC4LEDSP__LED1__SET/APP                     ----- -----
  +--> ?PR?HPLMCS51GENERALIOC__P15__SET?APP

HPLMCS51GENERALIOC__P15__SET/APP              ----- -----

SPEC4LEDSP__LED2__SET/APP                     ----- -----
  +--> ?PR?HPLMCS51GENERALIOC__P16__SET?APP

HPLMCS51GENERALIOC__P16__SET/APP              ----- -----

SPEC4LEDSP__LED3__SET/APP                     ----- -----
  +--> ?PR?HPLMCS51GENERALIOC__P17__SET?APP

HPLMCS51GENERALIOC__P17__SET/APP              ----- -----

__NESC_ENABLE_INTERRUPT/APP                   ----- -----

REALMAINP__BOOT__BOOTED/APP                   ----- -----
  +--> ?PR?TESTLEDPINC__BOOT__BOOTED?APP

TESTLEDPINC__BOOT__BOOTED/APP                 ----- -----
  +--> ?PR?TESTLEDPINC__LIGHTON__POSTTASK?APP
  +--> ?PR?TESTLEDPINC__DELAY__POSTTASK?APP

TESTLEDPINC__LIGHTON__POSTTASK/APP            ----- -----
  +--> ?PR?_SCHEDULERBASICP__TASKBASIC__POST...

REALMAINP__SCHEDULER__TASKLOOP/APP            ----- -----
  +--> ?PR?SCHEDULERBASICP__SCHEDULER__TASKL...

SCHEDULERBASICP__SCHEDULER__TASKLOOP/APP      E001H E002H
  +--> ?PR?__NESC_ATOMIC_START?APP
  +--> ?PR?SCHEDULERBASICP__POPTASK?APP
  +--> ?PR?SCHEDULERBASICP__MCUSLEEP__SLEEP?APP
  +--> ?PR?___NESC_ATOMIC_END?APP
  +--> ?PR?_SCHEDULERBASICP__TASKBASIC__RUNT...

SCHEDULERBASICP__MCUSLEEP__SLEEP/APP          ----- -----
  +--> ?PR?MCUSLEEPC__MCUSLEEP__SLEEP?APP

MCUSLEEPC__MCUSLEEP__SLEEP/APP                ----- -----
  +--> ?PR?__NESC_ENABLE_INTERRUPT?APP
  +--> ?PR?__NESC_DISABLE_INTERRUPT?APP

__NESC_DISABLE_INTERRUPT/APP                  ----- -----



PUBLIC SYMBOLS OF MODULE:  APP (?C_STARTUP)


      VALUE       CLASS    TYPE      PUBLIC SYMBOL NAME
LX51 LINKER/LOCATER V4.41                                                             05/02/2013  19:30:42  PAGE 9


      =================================================
      00000000H   NUMBER   ---       ?C?CODESEG
      0100006FH   CODE     ---       ?C?MEMSET
      00000000H   NUMBER   ---       ?C?XDATASEG
      0100003CH   CODE     ---       ?C_START
      01000000H   CODE     ---       ?C_STARTUP
      0100027AH   CODE     ---       ___NESC_ATOMIC_END
      01000272H   CODE     ---       __NESC_ATOMIC_START
      0100003CH   CODE     ---       MAIN
      0200E00AH   XDATA    ---       SCHEDULERBASICP__M_HEAD
      0200E007H   XDATA    ---       SCHEDULERBASICP__M_NEXT
      0200E006H   XDATA    ---       SCHEDULERBASICP__M_TAIL



SYMBOL TABLE OF MODULE:  APP (?C_STARTUP)

      VALUE       REP       CLASS    TYPE      SYMBOL NAME
      ====================================================
      ---         MODULE    ---      ---       ?C_STARTUP
      01000000H   PUBLIC    CODE     ---       ?C_STARTUP
      000000E0H   SYMBOL    DATA     ---       ACC
      000000F0H   SYMBOL    DATA     ---       B
      00000083H   SYMBOL    DATA     ---       DPH
      00000082H   SYMBOL    DATA     ---       DPL
      00000000H   SYMBOL    NUMBER   ---       IBPSTACK
      00000100H   SYMBOL    NUMBER   ---       IBPSTACKTOP
      00000080H   SYMBOL    NUMBER   ---       IDATALEN
      01000260H   SYMBOL    CODE     ---       IDATALOOP
      00000000H   SYMBOL    NUMBER   ---       PBPSTACK
      00000100H   SYMBOL    NUMBER   ---       PBPSTACKTOP
      00000000H   SYMBOL    NUMBER   ---       PDATALEN
      00000000H   SYMBOL    NUMBER   ---       PDATASTART
      00000000H   SYMBOL    NUMBER   ---       PPAGE
      00000000H   SYMBOL    NUMBER   ---       PPAGEENABLE
      000000A0H   SYMBOL    DATA     ---       PPAGE_SFR
      00000081H   SYMBOL    DATA     ---       SP
      0100025DH   SYMBOL    CODE     ---       STARTUP1
      00000000H   SYMBOL    NUMBER   ---       XBPSTACK
      00000000H   SYMBOL    NUMBER   ---       XBPSTACKTOP
      00000000H   SYMBOL    NUMBER   ---       XDATALEN
      00000000H   SYMBOL    NUMBER   ---       XDATASTART
      01000000H   LINE      CODE     ---       #126
      0100025DH   LINE      CODE     ---       #133
      0100025FH   LINE      CODE     ---       #134
      01000260H   LINE      CODE     ---       #135
      01000261H   LINE      CODE     ---       #136
      01000263H   LINE      CODE     ---       #185
      01000266H   LINE      CODE     ---       #196

      ---         MODULE    ---      ---       APP
      0200E00AH   PUBLIC    XDATA    ---       SCHEDULERBASICP__M_HEAD
      0200E007H   PUBLIC    XDATA    ---       SCHEDULERBASICP__M_NEXT
      0200E006H   PUBLIC    XDATA    ---       SCHEDULERBASICP__M_TAIL
      0100003CH   PUBLIC    CODE     ---       MAIN
      0100027AH   PUBLIC    CODE     ---       ___NESC_ATOMIC_END
      01000272H   PUBLIC    CODE     ---       __NESC_ATOMIC_START

      ---         MODULE    ---      ---       ?C?MEMSET
      0100006FH   PUBLIC    CODE     ---       ?C?MEMSET



FUNCTION REGISTER MASKS

LX51 LINKER/LOCATER V4.41                                                             05/02/2013  19:30:42  PAGE 10



FUNCTION . . . . . . . . . REG MASK
====================================

___NESC_ATOMIC_END . . . . @0x18000800
__NESC_ATOMIC_START. . . . @0x18000880

Program Size: data=9.0 xdata=11 const=0 code=916
LX51 RUN COMPLETE.  0 WARNING(S),  0 ERROR(S)
