LX51 LINKER/LOCATER V4.41                                                               05/05/2013  02:08:26  PAGE 1


LX51 LINKER/LOCATER V4.41, INVOKED BY:
C:\KEIL\C51\BIN\LX51.EXE STARTUP.OBJ, APP.OBJ TO APP PRINT (app.map) CLASSES (XDATA (X:0XE000-X:0XFF00), IDATA (I:0-I:0X
>> FF)) REGFILE (app.reg) 


CPU MODE:     8051 MODE
MEMORY MODEL: LARGE


INPUT MODULES INCLUDED:
  STARTUP.OBJ (?C_STARTUP)
         COMMENT TYPE 1: A51 / ASM51 Assembler
  APP.OBJ (APP)
         COMMENT TYPE 1: C51 Compiler
  C:\KEIL\C51\LIB\C51L.LIB (?C_INIT)
         COMMENT TYPE 1: A51 / ASM51 Assembler
  C:\KEIL\C51\LIB\C51L.LIB (?C?CLDPTR)
         COMMENT TYPE 1: A51 / ASM51 Assembler
  C:\KEIL\C51\LIB\C51L.LIB (?C?CLDOPTR)
         COMMENT TYPE 1: A51 / ASM51 Assembler
  C:\KEIL\C51\LIB\C51L.LIB (?C?CSTPTR)
         COMMENT TYPE 1: A51 / ASM51 Assembler
  C:\KEIL\C51\LIB\C51L.LIB (?C?CSTOPTR)
         COMMENT TYPE 1: A51 / ASM51 Assembler
  C:\KEIL\C51\LIB\C51L.LIB (?C?IMUL)
         COMMENT TYPE 1: A51 / ASM51 Assembler
  C:\KEIL\C51\LIB\C51L.LIB (?C?UIDIV)
         COMMENT TYPE 1: A51 / ASM51 Assembler
  C:\KEIL\C51\LIB\C51L.LIB (?C?IILDX)
         COMMENT TYPE 1: A51 / ASM51 Assembler
  C:\KEIL\C51\LIB\C51L.LIB (?C?LSTXDATA)
         COMMENT TYPE 1: A51 / ASM51 Assembler
  C:\KEIL\C51\LIB\C51L.LIB (?C?MEMSET)
         COMMENT TYPE 1: A51 / ASM51 Assembler


ACTIVE MEMORY CLASSES OF MODULE:  APP (?C_STARTUP)

BASE        START       END         USED      MEMORY CLASS
==========================================================
X:000000H   X:00E000H   X:00FF00H   0004C2H   XDATA
I:000000H   I:000000H   I:0000FFH   000001H   IDATA
C:000000H   C:000000H   C:00FFFFH   000F01H   CODE
I:000000H   I:000000H   I:00007FH   000008H   DATA


MEMORY MAP OF MODULE:  APP (?C_STARTUP)


START     STOP      LENGTH    ALIGN  RELOC    MEMORY CLASS   SEGMENT NAME
=========================================================================

* * * * * * * * * * *   D A T A   M E M O R Y   * * * * * * * * * * * * *
000000H   000007H   000008H   ---    AT..     DATA           "REG BANK 0"
000008H   000008H   000001H   BYTE   UNIT     IDATA          ?STACK

* * * * * * * * * * *   C O D E   M E M O R Y   * * * * * * * * * * * * *
000000H   000002H   000003H   ---    OFFS..   CODE           ?CO??C_STARTUP?0
000003H   000005H   000003H   ---    OFFS..   CODE           ?CO?APP?0
000006H   000011H   00000CH   BYTE   UNIT     CODE           ?PR?HALCC2430RADIOP__CC2430RXDISABLE?APP
000012H   000012H   000001H   BYTE   UNIT     CODE           ?PR?NOPINC__0__GENERALIO__SET?APP
000013H   000015H   000003H   ---    OFFS..   CODE           ?CO?APP?2
000016H   000039H   000024H   BYTE   UNIT     CODE           ?PR?_HALCC2430RADIOP__WAIT?APP
00003AH   00003AH   000001H   BYTE   UNIT     CODE           ?PR?NOPINC__0__GENERALIO__MAKEOUTPUT?APP
00003BH   00003DH   000003H   ---    OFFS..   CODE           ?CO?APP?3
00003EH   000076H   000039H   BYTE   UNIT     CODE           ?PR?STDOUTM__INIT__INIT?APP
LX51 LINKER/LOCATER V4.41                                                             05/05/2013  02:08:26  PAGE 2


000077H   000082H   00000CH   BYTE   UNIT     CODE           ?PR?_PHYP__HALCC2420__RECEIVEDPACKET?APP
000083H   000085H   000003H   ---    OFFS..   CODE           ?CO?APP?1
000086H   00029EH   000219H   BYTE   UNIT     CODE           ?PR?_STDOUTM__STDOUT__PRINT?APP
00029FH   0003E0H   000142H   BYTE   UNIT     CODE           ?PR?HALCC2430RADIOP__RECEIVEDPACKETTASK__RUNTASK?APP
0003E1H   00050FH   00012FH   BYTE   UNIT     CODE           ?C?LIB_CODE
000510H   0005D1H   0000C2H   BYTE   UNIT     CODE           ?PR?HALCC2430RADIOP__TRANSMITTASK__RUNTASK?APP
0005D2H   000679H   0000A8H   BYTE   UNIT     CODE           ?PR?STDOUTM__UART__PUTDONE?APP
00067AH   000718H   00009FH   BYTE   UNIT     CODE           ?PR?__VECTOR_16?APP
000719H   0007A4H   00008CH   BYTE   UNIT     CODE           ?C_C51STARTUP
0007A5H   000816H   000072H   BYTE   UNIT     CODE           ?PR?HALCC2430RADIOP__INITTASK__RUNTASK?APP
000817H   00086FH   000059H   BYTE   UNIT     CODE           ?CO?APP
000870H   0008C5H   000056H   BYTE   UNIT     CODE           ?PR?__VECTOR_7?APP
0008C6H   000915H   000050H   BYTE   UNIT     CODE           ?PR?_SCHEDULERBASICP__TASKBASIC__RUNTASK?APP
000916H   000963H   00004EH   BYTE   UNIT     CODE           ?PR?_HALCC2430RADIOP__CC2420SETIEEEADDR?APP
000964H   0009B0H   00004DH   BYTE   UNIT     CODE           ?PR?__VECTOR_0?APP
0009B1H   0009E9H   000039H   BYTE   UNIT     CODE           ?PR?SCHEDULERBASICP__POPTASK?APP
0009EAH   000A1CH   000033H   BYTE   UNIT     CODE           ?PR?HALCC2430RADIOP__FLUSHBUFFERTASK__RUNTASK?APP
000A1DH   000A4FH   000033H   BYTE   UNIT     CODE           ?PR?MAIN?APP
000A50H   000A80H   000031H   BYTE   UNIT     CODE           ?PR?REALMAINP__SOFTWAREINIT__INIT?APP
000A81H   000AABH   00002BH   BYTE   UNIT     CODE           ?PR?_HALCC2430RADIOP__CC2430PALEVELSET?APP
000AACH   000AD5H   00002AH   BYTE   UNIT     CODE           ?PR?_SCHEDULERBASICP__PUSHTASK?APP
000AD6H   000AFFH   00002AH   BYTE   UNIT     CODE           ?PR?SCHEDULERBASICP__SCHEDULER__TASKLOOP?APP
000B00H   000B28H   000029H   BYTE   UNIT     CODE           ?PR?_SCHEDULERBASICP__TASKBASIC__POSTTASK?APP
000B29H   000B50H   000028H   BYTE   UNIT     CODE           ?PR?HALCC2430SIMPLEUARTP__INIT__INIT?APP
000B51H   000B72H   000022H   BYTE   UNIT     CODE           ?C_INITSEG
000B73H   000B92H   000020H   BYTE   UNIT     CODE           ?PR?HALCC2430RADIOP__SETCHANNELTASK__RUNTASK?APP
000B93H   000BB2H   000020H   BYTE   UNIT     CODE           ?PR?_HALCC2430RADIOP__CC2430CHANNELSET?APP
000BB3H   000BD1H   00001FH   BYTE   UNIT     CODE           ?PR?HALCC2430RADIOP__INTERRUPTRFERR__FIRED?APP
000BD2H   000BF0H   00001FH   BYTE   UNIT     CODE           ?PR?__VECTOR_2?APP
000BF1H   000C0DH   00001DH   BYTE   UNIT     CODE           ?PR?HALCC2430RADIOP__CC2430CONTROLSET?APP
000C0EH   000C29H   00001CH   BYTE   UNIT     CODE           ?PR?_SCHEDULERBASICP__ISWAITING?APP
000C2AH   000C43H   00001AH   BYTE   UNIT     CODE           ?PR?SCHEDULERBASICP__SCHEDULER__INIT?APP
000C44H   000C5DH   00001AH   BYTE   UNIT     CODE           ?PR?HALCC2430RADIOP__CC2430TXWAIT?APP
000C5EH   000C77H   00001AH   BYTE   UNIT     CODE           ?PR?RANDOMMLCGC__INIT__INIT?APP
000C78H   000C90H   000019H   BYTE   UNIT     CODE           ?PR?HPLCC2430INTERRUPTSC__INTERRUPTFIFOP__ENABLERISINGEDGE
                                                             -?APP
000C91H   000CA9H   000019H   BYTE   UNIT     CODE           ?PR?HPLCC2430INTERRUPTSC__INTERRUPTTXDONE__ENABLERISINGEDG
                                                             -E?APP
000CAAH   000CC2H   000019H   BYTE   UNIT     CODE           ?PR?HALCC2430RADIOP__INTERRUPTFIFOP__FIRED?APP
000CC3H   000CD8H   000016H   BYTE   UNIT     CODE           ?PR?PLATFORMP__INIT__INIT?APP
000CD9H   000CEDH   000015H   BYTE   UNIT     CODE           ?PR?LEDSP__INIT__INIT?APP
000CEEH   000D02H   000015H   BYTE   UNIT     CODE           ?PR?HALCC2430RADIOP__INTERRUPTTXDONE__FIRED?APP
000D03H   000D16H   000014H   BYTE   UNIT     CODE           ?PR?HALCC2430RADIOP__INIT__INIT?APP
000D17H   000D2AH   000014H   BYTE   UNIT     CODE           ?PR?SCHEDULERBASICP__SCHEDULER__RUNNEXTTASK?APP
000D2BH   000D3DH   000013H   BYTE   UNIT     CODE           ?PR?___NESC_ATOMIC_END?APP
000D3EH   000D50H   000013H   BYTE   UNIT     CODE           ?PR?PHYP__SENDDONE_TASK__RUNTASK?APP
000D51H   000D63H   000013H   BYTE   UNIT     CODE           ?PR?_STDOUTM__UART__PUT?APP
000D64H   000D76H   000013H   BYTE   UNIT     CODE           ?PR?HPLCC2430INTERRUPTSC__INTERRUPTFIFOP__DISABLE?APP
000D77H   000D89H   000013H   BYTE   UNIT     CODE           ?PR?HALCC2430RADIOP__CC2430RXENABLE?APP
000D8AH   000D9BH   000012H   BYTE   UNIT     CODE           ?PR?HPLCC2430INTERRUPTSC__INTERRUPTRFERR__ENABLERISINGEDGE
                                                             -?APP
000D9CH   000DACH   000011H   BYTE   UNIT     CODE           ?PR?HALCC2430RADIOP__CC2430RESET?APP
000DADH   000DBCH   000010H   BYTE   UNIT     CODE           ?PR?HALCC2430RADIOP__SENDPACKETDONETASK__RUNTASK?APP
000DBDH   000DCCH   000010H   BYTE   UNIT     CODE           ?PR?_ECOMBINE?APP
000DCDH   000DDBH   00000FH   BYTE   UNIT     CODE           ?PR?_PHYP__HALCC2420__SENDPACKETDONE?APP
000DDCH   000DE9H   00000EH   BYTE   UNIT     CODE           ?PR?HALCC2430RADIOP__CC2430RFENABLE?APP
000DEAH   000DF5H   00000CH   BYTE   UNIT     CODE           ?PR?HALCC2430RADIOP__CC2430EXTERNALOSCILLATOR?APP
000DF6H   000DFEH   000009H   BYTE   UNIT     CODE           ?PR?_HALCC2430RADIOP__CC2430SETPANID?APP
000DFFH   000E07H   000009H   BYTE   UNIT     CODE           ?PR?_HALCC2430RADIOP__CC2430SETSHORTADDR?APP
000E08H   000E10H   000009H   BYTE   UNIT     CODE           ?PR?HALCC2430RADIOP__HALCC2420CONTROL__START?APP
000E11H   000E19H   000009H   BYTE   UNIT     CODE           ?PR?PHYP__SPLITCONTROL__START?APP
000E1AH   000E22H   000009H   BYTE   UNIT     CODE           ?PR?MCUSLEEPC__MCUSLEEP__SLEEP?APP
000E23H   000E2BH   000009H   BYTE   UNIT     CODE           ?PR?_HPLCC2430INTERRUPTSC__CAPTURESFD__DEFAULT__CAPTURED?A
                                                             -PP
000E2CH   000E33H   000008H   BYTE   UNIT     CODE           ?PR?__NESC_ATOMIC_START?APP
LX51 LINKER/LOCATER V4.41                                                             05/05/2013  02:08:26  PAGE 3


000E34H   000E3BH   000008H   BYTE   UNIT     CODE           ?PR?HALCC2430RADIOP__CC2430RFDISABLE?APP
000E3CH   000E41H   000006H   BYTE   UNIT     CODE           ?PR?HALCC2430RADIOP__FLUSHBUFFERTASK__POSTTASK?APP
000E42H   000E47H   000006H   BYTE   UNIT     CODE           ?PR?HALCC2430RADIOP__RECEIVEDPACKETTASK__POSTTASK?APP
000E48H   000E4DH   000006H   BYTE   UNIT     CODE           ?PR?_TESTSTDCONTROLP__SPLITCONTROL__STOPDONE?APP
000E4EH   000E53H   000006H   BYTE   UNIT     CODE           ?PR?HALCC2430RADIOP__INITTASK__POSTTASK?APP
000E54H   000E59H   000006H   BYTE   UNIT     CODE           ?PR?_TESTSTDCONTROLP__SPLITCONTROL__STARTDONE?APP
000E5AH   000E5FH   000006H   BYTE   UNIT     CODE           ?PR?HALCC2430RADIOP__SENDPACKETDONETASK__POSTTASK?APP
000E60H   000E65H   000006H   BYTE   UNIT     CODE           ?PR?_HALCC2430RADIOP__STDOUT__GET?APP
000E66H   000E6BH   000006H   BYTE   UNIT     CODE           ?PR?_SCHEDULERBASICP__TASKBASIC__DEFAULT__RUNTASK?APP
000E6CH   000E70H   000005H   BYTE   UNIT     CODE           ?PR?PHYP__STOPDONE_TASK__RUNTASK?APP
000E71H   000E75H   000005H   BYTE   UNIT     CODE           ?PR?_HALCC2430SIMPLEUARTP__UART0__PUT?APP
000E76H   000E79H   000004H   BYTE   UNIT     CODE           ?PR?HPLMCS51GENERALIOC__P11__MAKEOUTPUT?APP
000E7AH   000E7DH   000004H   BYTE   UNIT     CODE           ?PR?HPLMCS51GENERALIOC__P10__MAKEOUTPUT?APP
000E7EH   000E81H   000004H   BYTE   UNIT     CODE           ?PR?PLATFORMP__LEDSINIT__INIT?APP
000E82H   000E85H   000004H   BYTE   UNIT     CODE           ?PR?REALMAINP__PLATFORMINIT__INIT?APP
000E86H   000E89H   000004H   BYTE   UNIT     CODE           ?PR?REALMAINP__SCHEDULER__RUNNEXTTASK?APP
000E8AH   000E8DH   000004H   BYTE   UNIT     CODE           ?PR?_HALCC2430RADIOP__STDOUT__PRINT?APP
000E8EH   000E91H   000004H   BYTE   UNIT     CODE           ?PR?HALCC2430RADIOP__INTERRUPTFIFOP__DISABLE?APP
000E92H   000E95H   000004H   BYTE   UNIT     CODE           ?PR?HALCC2430RADIOP__INTERRUPTFIFOP__ENABLERISINGEDGE?APP
000E96H   000E99H   000004H   BYTE   UNIT     CODE           ?PR?_HALCC2430RADIOP__HALCC2420__RECEIVEDPACKET?APP
000E9AH   000E9DH   000004H   BYTE   UNIT     CODE           ?PR?HALCC2430RADIOP__INTERRUPTRFERR__ENABLERISINGEDGE?APP
000E9EH   000EA1H   000004H   BYTE   UNIT     CODE           ?PR?HALCC2430RADIOP__INTERRUPTTXDONE__ENABLERISINGEDGE?APP
000EA2H   000EA5H   000004H   BYTE   UNIT     CODE           ?PR?PHYP__HALCC2420CONTROL__START?APP
000EA6H   000EA9H   000004H   BYTE   UNIT     CODE           ?PR?TESTSTDCONTROLP__SPLITCONTROL__START?APP
000EAAH   000EADH   000004H   BYTE   UNIT     CODE           ?PR?_STDOUTM__UART__GET?APP
000EAEH   000EB0H   000003H   BYTE   UNIT     CODE           ?PR?REALMAINP__SCHEDULER__INIT?APP
000EB1H   000EB3H   000003H   BYTE   UNIT     CODE           ?PR?LEDSP__LED2__SET?APP
000EB4H   000EB6H   000003H   BYTE   UNIT     CODE           ?PR?HPLMCS51GENERALIOC__P11__SET?APP
000EB7H   000EB9H   000003H   BYTE   UNIT     CODE           ?PR?LEDSP__LED1__SET?APP
000EBAH   000EBCH   000003H   BYTE   UNIT     CODE           ?PR?HPLMCS51GENERALIOC__P10__SET?APP
000EBDH   000EBFH   000003H   BYTE   UNIT     CODE           ?PR?LEDSP__LED0__SET?APP
000EC0H   000EC2H   000003H   BYTE   UNIT     CODE           ?PR?LEDSP__LED2__MAKEOUTPUT?APP
000EC3H   000EC5H   000003H   BYTE   UNIT     CODE           ?PR?LEDSP__LED1__MAKEOUTPUT?APP
000EC6H   000EC8H   000003H   BYTE   UNIT     CODE           ?PR?LEDSP__LED0__MAKEOUTPUT?APP
000EC9H   000ECBH   000003H   BYTE   UNIT     CODE           ?PR?_HALCC2430RADIOP__HALCC2420__SENDPACKETDONE?APP
000ECCH   000ECEH   000003H   BYTE   UNIT     CODE           ?PR?_PHYP__SPLITCONTROL__STOPDONE?APP
000ECFH   000ED1H   000003H   BYTE   UNIT     CODE           ?PR?PHYP__INIT__INIT?APP
000ED2H   000ED4H   000003H   BYTE   UNIT     CODE           ?PR?_PHYP__SPLITCONTROL__STARTDONE?APP
000ED5H   000ED7H   000003H   BYTE   UNIT     CODE           ?PR?TESTSTDCONTROLP__BOOT__BOOTED?APP
000ED8H   000EDAH   000003H   BYTE   UNIT     CODE           ?PR?REALMAINP__BOOT__BOOTED?APP
000EDBH   000EDDH   000003H   BYTE   UNIT     CODE           ?PR?__NESC_DISABLE_INTERRUPT?APP
000EDEH   000EE0H   000003H   BYTE   UNIT     CODE           ?PR?__NESC_ENABLE_INTERRUPT?APP
000EE1H   000EE3H   000003H   BYTE   UNIT     CODE           ?PR?SCHEDULERBASICP__MCUSLEEP__SLEEP?APP
000EE4H   000EE6H   000003H   BYTE   UNIT     CODE           ?PR?REALMAINP__SCHEDULER__TASKLOOP?APP
000EE7H   000EE9H   000003H   BYTE   UNIT     CODE           ?PR?HPLCC2430INTERRUPTSC__INTERRUPTRFERR__FIRED?APP
000EEAH   000EECH   000003H   BYTE   UNIT     CODE           ?PR?HPLCC2430INTERRUPTSC__INTERRUPTCCA__FIRED?APP
000EEDH   000EEFH   000003H   BYTE   UNIT     CODE           ?PR?HPLCC2430INTERRUPTSC__INTERRUPTFIFOP__FIRED?APP
000EF0H   000EF2H   000003H   BYTE   UNIT     CODE           ?PR?HPLCC2430INTERRUPTSC__INTERRUPTTXDONE__FIRED?APP
000EF3H   000EF5H   000003H   BYTE   UNIT     CODE           ?PR?_HPLCC2430INTERRUPTSC__CAPTURESFD__CAPTURED?APP
000EF6H   000EF8H   000003H   BYTE   UNIT     CODE           ?PR?_STDOUTM__STDOUT__GET?APP
000EF9H   000EFBH   000003H   BYTE   UNIT     CODE           ?PR?_HALCC2430SIMPLEUARTP__UART0__GET?APP
000EFCH   000EFEH   000003H   BYTE   UNIT     CODE           ?PR?HALCC2430SIMPLEUARTP__UART0__PUTDONE?APP
000EFFH   000EFFH   000001H   BYTE   UNIT     CODE           ?PR?PHYP__STARTDONE_TASK__RUNTASK?APP
000F00H   000F00H   000001H   BYTE   UNIT     CODE           ?PR?HPLCC2430INTERRUPTSC__INTERRUPTCCA__DEFAULT__FIRED?APP

* * * * * * * * * * *  X D A T A   M E M O R Y  * * * * * * * * * * * * *
00E000H   00E49FH   0004A0H   BYTE   UNIT     XDATA          ?XD?APP
00E4A0H   00E4C1H   000022H   BYTE   UNIT     XDATA          _XDATA_GROUP_



OVERLAY MAP OF MODULE:   APP (?C_STARTUP)


FUNCTION/MODULE                               XDATA_GROUP
LX51 LINKER/LOCATER V4.41                                                             05/05/2013  02:08:26  PAGE 4


--> CALLED FUNCTION/MODULE                    START  STOP
=========================================================
?C_C51STARTUP                                 ----- -----
  +--> ?PR?MAIN?APP
  +--> ?C_INITSEG

MAIN/APP                                      E4A0H E4A0H
  +--> ?PR?__NESC_ATOMIC_START?APP
  +--> ?PR?REALMAINP__SCHEDULER__INIT?APP
  +--> ?PR?REALMAINP__PLATFORMINIT__INIT?APP
  +--> ?PR?REALMAINP__SCHEDULER__RUNNEXTTASK...
  +--> ?PR?REALMAINP__SOFTWAREINIT__INIT?APP
  +--> ?PR?___NESC_ATOMIC_END?APP
  +--> ?PR?__NESC_ENABLE_INTERRUPT?APP
  +--> ?PR?REALMAINP__BOOT__BOOTED?APP
  +--> ?PR?REALMAINP__SCHEDULER__TASKLOOP?APP

__NESC_ATOMIC_START/APP                       ----- -----

REALMAINP__SCHEDULER__INIT/APP                ----- -----
  +--> ?PR?SCHEDULERBASICP__SCHEDULER__INIT?APP

SCHEDULERBASICP__SCHEDULER__INIT/APP          ----- -----

REALMAINP__PLATFORMINIT__INIT/APP             ----- -----
  +--> ?PR?PLATFORMP__INIT__INIT?APP

PLATFORMP__INIT__INIT/APP                     ----- -----
  +--> ?PR?PLATFORMP__LEDSINIT__INIT?APP

PLATFORMP__LEDSINIT__INIT/APP                 ----- -----
  +--> ?PR?LEDSP__INIT__INIT?APP

LEDSP__INIT__INIT/APP                         ----- -----
  +--> ?PR?LEDSP__LED0__MAKEOUTPUT?APP
  +--> ?PR?LEDSP__LED1__MAKEOUTPUT?APP
  +--> ?PR?LEDSP__LED2__MAKEOUTPUT?APP
  +--> ?PR?LEDSP__LED0__SET?APP
  +--> ?PR?LEDSP__LED1__SET?APP
  +--> ?PR?LEDSP__LED2__SET?APP

LEDSP__LED0__MAKEOUTPUT/APP                   ----- -----
  +--> ?PR?HPLMCS51GENERALIOC__P10__MAKEOUTP...

HPLMCS51GENERALIOC__P10__MAKEOUTPUT/APP       ----- -----

LEDSP__LED1__MAKEOUTPUT/APP                   ----- -----
  +--> ?PR?HPLMCS51GENERALIOC__P11__MAKEOUTP...

HPLMCS51GENERALIOC__P11__MAKEOUTPUT/APP       ----- -----

LEDSP__LED2__MAKEOUTPUT/APP                   ----- -----
  +--> ?PR?NOPINC__0__GENERALIO__MAKEOUTPUT?APP

NOPINC__0__GENERALIO__MAKEOUTPUT/APP          ----- -----

LEDSP__LED0__SET/APP                          ----- -----
  +--> ?PR?HPLMCS51GENERALIOC__P10__SET?APP

HPLMCS51GENERALIOC__P10__SET/APP              ----- -----

LEDSP__LED1__SET/APP                          ----- -----
  +--> ?PR?HPLMCS51GENERALIOC__P11__SET?APP

HPLMCS51GENERALIOC__P11__SET/APP              ----- -----
LX51 LINKER/LOCATER V4.41                                                             05/05/2013  02:08:26  PAGE 5



LEDSP__LED2__SET/APP                          ----- -----
  +--> ?PR?NOPINC__0__GENERALIO__SET?APP

NOPINC__0__GENERALIO__SET/APP                 ----- -----

REALMAINP__SCHEDULER__RUNNEXTTASK/APP         ----- -----
  +--> ?PR?SCHEDULERBASICP__SCHEDULER__RUNNE...

SCHEDULERBASICP__SCHEDULER__RUNNEXTTA...      E4A1H E4A1H
  +--> ?PR?SCHEDULERBASICP__POPTASK?APP
  +--> ?PR?_SCHEDULERBASICP__TASKBASIC__RUNT...

SCHEDULERBASICP__POPTASK/APP                  E4A3H E4A3H

_SCHEDULERBASICP__TASKBASIC__RUNTASK/APP      E4A3H E4A3H
  +--> ?PR?PHYP__STARTDONE_TASK__RUNTASK?APP
  +--> ?PR?PHYP__STOPDONE_TASK__RUNTASK?APP
  +--> ?PR?PHYP__SENDDONE_TASK__RUNTASK?APP
  +--> ?PR?HALCC2430RADIOP__INITTASK__RUNTAS...
  +--> ?PR?HALCC2430RADIOP__TRANSMITTASK__RU...
  +--> ?PR?HALCC2430RADIOP__SETCHANNELTASK__...
  +--> ?PR?HALCC2430RADIOP__RECEIVEDPACKETTA...
  +--> ?PR?HALCC2430RADIOP__FLUSHBUFFERTASK_...
  +--> ?PR?HALCC2430RADIOP__SENDPACKETDONETA...
  +--> ?PR?_SCHEDULERBASICP__TASKBASIC__DEFA...

PHYP__STARTDONE_TASK__RUNTASK/APP             ----- -----

PHYP__STOPDONE_TASK__RUNTASK/APP              ----- -----
  +--> ?PR?_PHYP__SPLITCONTROL__STOPDONE?APP

_PHYP__SPLITCONTROL__STOPDONE/APP             ----- -----
  +--> ?PR?_TESTSTDCONTROLP__SPLITCONTROL__S...

_TESTSTDCONTROLP__SPLITCONTROL__STOPD...      E4A4H E4A4H

PHYP__SENDDONE_TASK__RUNTASK/APP              E4A4H E4A5H
  +--> ?PR?__NESC_ATOMIC_START?APP
  +--> ?PR?___NESC_ATOMIC_END?APP

___NESC_ATOMIC_END/APP                        ----- -----
  +--> ?PR?__NESC_ATOMIC_START?APP

HALCC2430RADIOP__INITTASK__RUNTASK/APP        ----- -----
  +--> ?PR?HALCC2430RADIOP__CC2430RESET?APP
  +--> ?PR?HALCC2430RADIOP__CC2430EXTERNALOS...
  +--> ?PR?_HALCC2430RADIOP__CC2420SETIEEEAD...
  +--> ?PR?_HALCC2430RADIOP__CC2430SETSHORTA...
  +--> ?PR?_HALCC2430RADIOP__CC2430SETPANID?APP
  +--> ?PR?HALCC2430RADIOP__CC2430CONTROLSET...
  +--> ?PR?_HALCC2430RADIOP__CC2430CHANNELSE...
  +--> ?PR?_HALCC2430RADIOP__CC2430PALEVELSE...
  +--> ?PR?HALCC2430RADIOP__CC2430RFDISABLE?APP
  +--> ?PR?HALCC2430RADIOP__INTERRUPTTXDONE_...
  +--> ?PR?HALCC2430RADIOP__INTERRUPTRFERR__...

HALCC2430RADIOP__CC2430RESET/APP              ----- -----

HALCC2430RADIOP__CC2430EXTERNALOSCILL...      ----- -----

_HALCC2430RADIOP__CC2420SETIEEEADDR/APP       ----- -----

_HALCC2430RADIOP__CC2430SETSHORTADDR/APP      ----- -----

LX51 LINKER/LOCATER V4.41                                                             05/05/2013  02:08:26  PAGE 6


_HALCC2430RADIOP__CC2430SETPANID/APP          ----- -----

HALCC2430RADIOP__CC2430CONTROLSET/APP         ----- -----

_HALCC2430RADIOP__CC2430CHANNELSET/APP        ----- -----

_HALCC2430RADIOP__CC2430PALEVELSET/APP        ----- -----

HALCC2430RADIOP__CC2430RFDISABLE/APP          ----- -----

HALCC2430RADIOP__INTERRUPTTXDONE__ENA...      ----- -----
  +--> ?PR?HPLCC2430INTERRUPTSC__INTERRUPTTX...

HPLCC2430INTERRUPTSC__INTERRUPTTXDONE...      E4A4H E4A4H
  +--> ?PR?__NESC_ATOMIC_START?APP
  +--> ?PR?___NESC_ATOMIC_END?APP

HALCC2430RADIOP__INTERRUPTRFERR__ENAB...      ----- -----
  +--> ?PR?HPLCC2430INTERRUPTSC__INTERRUPTRF...

HPLCC2430INTERRUPTSC__INTERRUPTRFERR_...      E4A4H E4A4H
  +--> ?PR?__NESC_ATOMIC_START?APP
  +--> ?PR?___NESC_ATOMIC_END?APP

HALCC2430RADIOP__TRANSMITTASK__RUNTAS...      E4A4H E4A6H
  +--> ?PR?HALCC2430RADIOP__CC2430RXENABLE?APP
  +--> ?PR?_HALCC2430RADIOP__WAIT?APP
  +--> ?PR?HALCC2430RADIOP__CC2430RXDISABLE?APP
  +--> ?PR?_HALCC2430RADIOP__HALCC2420__SEND...
  +--> ?PR?__NESC_ATOMIC_START?APP
  +--> ?PR?___NESC_ATOMIC_END?APP

HALCC2430RADIOP__CC2430RXENABLE/APP           ----- -----
  +--> ?PR?HALCC2430RADIOP__INTERRUPTFIFOP__...

HALCC2430RADIOP__INTERRUPTFIFOP__ENAB...      ----- -----
  +--> ?PR?HPLCC2430INTERRUPTSC__INTERRUPTFI...

HPLCC2430INTERRUPTSC__INTERRUPTFIFOP_...      E4A7H E4A7H
  +--> ?PR?__NESC_ATOMIC_START?APP
  +--> ?PR?___NESC_ATOMIC_END?APP

_HALCC2430RADIOP__WAIT/APP                    ----- -----

HALCC2430RADIOP__CC2430RXDISABLE/APP          ----- -----
  +--> ?PR?HALCC2430RADIOP__INTERRUPTFIFOP__...

HALCC2430RADIOP__INTERRUPTFIFOP__DISA...      ----- -----
  +--> ?PR?HPLCC2430INTERRUPTSC__INTERRUPTFI...

HPLCC2430INTERRUPTSC__INTERRUPTFIFOP_...      E4A7H E4A7H
  +--> ?PR?__NESC_ATOMIC_START?APP
  +--> ?PR?___NESC_ATOMIC_END?APP

_HALCC2430RADIOP__HALCC2420__SENDPACK...      ----- -----
  +--> ?PR?_PHYP__HALCC2420__SENDPACKETDONE?APP

_PHYP__HALCC2420__SENDPACKETDONE/APP          E4A7H E4AAH

HALCC2430RADIOP__SETCHANNELTASK__RUNT...      ----- -----
  +--> ?PR?HALCC2430RADIOP__CC2430TXWAIT?APP
  +--> ?PR?HALCC2430RADIOP__CC2430RXDISABLE?APP
  +--> ?PR?_HALCC2430RADIOP__CC2430CHANNELSE...
  +--> ?PR?HALCC2430RADIOP__CC2430RXENABLE?APP

LX51 LINKER/LOCATER V4.41                                                             05/05/2013  02:08:26  PAGE 7


HALCC2430RADIOP__CC2430TXWAIT/APP             ----- -----
  +--> ?PR?_HALCC2430RADIOP__WAIT?APP

HALCC2430RADIOP__RECEIVEDPACKETTASK__...      E4A4H E4A4H
  +--> ?PR?HALCC2430RADIOP__FLUSHBUFFERTASK_...
  +--> ?PR?___NESC_ATOMIC_END?APP
  +--> ?PR?__NESC_ATOMIC_START?APP
  +--> ?PR?HALCC2430RADIOP__RECEIVEDPACKETTA...
  +--> ?PR?_HALCC2430RADIOP__HALCC2420__RECE...
  +--> ?CO?APP
  +--> ?PR?_HALCC2430RADIOP__STDOUT__PRINT?APP

HALCC2430RADIOP__FLUSHBUFFERTASK__POS...      ----- -----
  +--> ?PR?_SCHEDULERBASICP__TASKBASIC__POST...

_SCHEDULERBASICP__TASKBASIC__POSTTASK...      E4B8H E4B9H
  +--> ?PR?__NESC_ATOMIC_START?APP
  +--> ?PR?_SCHEDULERBASICP__PUSHTASK?APP
  +--> ?PR?___NESC_ATOMIC_END?APP

_SCHEDULERBASICP__PUSHTASK/APP                ----- -----
  +--> ?PR?_SCHEDULERBASICP__ISWAITING?APP

_SCHEDULERBASICP__ISWAITING/APP               ----- -----

HALCC2430RADIOP__RECEIVEDPACKETTASK__...      ----- -----
  +--> ?PR?_SCHEDULERBASICP__TASKBASIC__POST...

_HALCC2430RADIOP__HALCC2420__RECEIVED...      ----- -----
  +--> ?PR?_PHYP__HALCC2420__RECEIVEDPACKET?APP

_PHYP__HALCC2420__RECEIVEDPACKET/APP          E4A5H E4A7H

?CO?APP                                       ----- -----

_HALCC2430RADIOP__STDOUT__PRINT/APP           ----- -----
  +--> ?PR?_STDOUTM__STDOUT__PRINT?APP

_STDOUTM__STDOUT__PRINT/APP                   E4B8H E4BEH
  +--> ?PR?__NESC_ATOMIC_START?APP
  +--> ?PR?_STDOUTM__UART__PUT?APP
  +--> ?PR?___NESC_ATOMIC_END?APP

_STDOUTM__UART__PUT/APP                       ----- -----
  +--> ?PR?_HALCC2430SIMPLEUARTP__UART0__PUT...

_HALCC2430SIMPLEUARTP__UART0__PUT/APP         ----- -----

HALCC2430RADIOP__FLUSHBUFFERTASK__RUN...      E4A4H E4A4H
  +--> ?PR?HALCC2430RADIOP__CC2430RXDISABLE?APP
  +--> ?PR?HALCC2430RADIOP__CC2430RXENABLE?APP
  +--> ?PR?__NESC_ATOMIC_START?APP
  +--> ?PR?___NESC_ATOMIC_END?APP
  +--> ?CO?APP
  +--> ?PR?_HALCC2430RADIOP__STDOUT__PRINT?APP

HALCC2430RADIOP__SENDPACKETDONETASK__...      ----- -----
  +--> ?PR?_HALCC2430RADIOP__HALCC2420__SEND...

_SCHEDULERBASICP__TASKBASIC__DEFAULT_...      E4A4H E4A4H

REALMAINP__SOFTWAREINIT__INIT/APP             E4A1H E4A1H
  +--> ?PR?RANDOMMLCGC__INIT__INIT?APP
  +--> ?PR?HALCC2430SIMPLEUARTP__INIT__INIT?APP
  +--> ?PR?_ECOMBINE?APP
LX51 LINKER/LOCATER V4.41                                                             05/05/2013  02:08:26  PAGE 8


  +--> ?PR?STDOUTM__INIT__INIT?APP
  +--> ?PR?HALCC2430RADIOP__INIT__INIT?APP
  +--> ?PR?PHYP__INIT__INIT?APP

RANDOMMLCGC__INIT__INIT/APP                   ----- -----

HALCC2430SIMPLEUARTP__INIT__INIT/APP          ----- -----

_ECOMBINE/APP                                 ----- -----

STDOUTM__INIT__INIT/APP                       ----- -----

HALCC2430RADIOP__INIT__INIT/APP               ----- -----
  +--> ?PR?HALCC2430RADIOP__INITTASK__POSTTA...

HALCC2430RADIOP__INITTASK__POSTTASK/APP       ----- -----
  +--> ?PR?_SCHEDULERBASICP__TASKBASIC__POST...

PHYP__INIT__INIT/APP                          ----- -----

__NESC_ENABLE_INTERRUPT/APP                   ----- -----

REALMAINP__BOOT__BOOTED/APP                   ----- -----
  +--> ?PR?TESTSTDCONTROLP__BOOT__BOOTED?APP

TESTSTDCONTROLP__BOOT__BOOTED/APP             ----- -----
  +--> ?PR?TESTSTDCONTROLP__SPLITCONTROL__ST...

TESTSTDCONTROLP__SPLITCONTROL__START/APP      ----- -----
  +--> ?PR?PHYP__SPLITCONTROL__START?APP

PHYP__SPLITCONTROL__START/APP                 ----- -----
  +--> ?PR?PHYP__HALCC2420CONTROL__START?APP
  +--> ?PR?_PHYP__SPLITCONTROL__STARTDONE?APP

PHYP__HALCC2420CONTROL__START/APP             ----- -----
  +--> ?PR?HALCC2430RADIOP__HALCC2420CONTROL...

HALCC2430RADIOP__HALCC2420CONTROL__ST...      ----- -----
  +--> ?PR?HALCC2430RADIOP__CC2430RFENABLE?APP
  +--> ?PR?HALCC2430RADIOP__CC2430RXENABLE?APP

HALCC2430RADIOP__CC2430RFENABLE/APP           ----- -----

_PHYP__SPLITCONTROL__STARTDONE/APP            ----- -----
  +--> ?PR?_TESTSTDCONTROLP__SPLITCONTROL__S...

_TESTSTDCONTROLP__SPLITCONTROL__START...      E4A1H E4A1H

REALMAINP__SCHEDULER__TASKLOOP/APP            ----- -----
  +--> ?PR?SCHEDULERBASICP__SCHEDULER__TASKL...

SCHEDULERBASICP__SCHEDULER__TASKLOOP/APP      E4A1H E4A2H
  +--> ?PR?__NESC_ATOMIC_START?APP
  +--> ?PR?SCHEDULERBASICP__POPTASK?APP
  +--> ?PR?SCHEDULERBASICP__MCUSLEEP__SLEEP?APP
  +--> ?PR?___NESC_ATOMIC_END?APP
  +--> ?PR?_SCHEDULERBASICP__TASKBASIC__RUNT...

SCHEDULERBASICP__MCUSLEEP__SLEEP/APP          ----- -----
  +--> ?PR?MCUSLEEPC__MCUSLEEP__SLEEP?APP

MCUSLEEPC__MCUSLEEP__SLEEP/APP                ----- -----
  +--> ?PR?__NESC_ENABLE_INTERRUPT?APP
  +--> ?PR?__NESC_DISABLE_INTERRUPT?APP
LX51 LINKER/LOCATER V4.41                                                             05/05/2013  02:08:26  PAGE 9



__NESC_DISABLE_INTERRUPT/APP                  ----- -----

?C_INITSEG                                    ----- -----

*** NEW ROOT ********************************

__VECTOR_0/APP                                E4ACH E4ACH
  +--> ?PR?__NESC_ATOMIC_START?APP
  +--> ?PR?HPLCC2430INTERRUPTSC__INTERRUPTRF...
  +--> ?PR?___NESC_ATOMIC_END?APP

HPLCC2430INTERRUPTSC__INTERRUPTRFERR_...      ----- -----
  +--> ?PR?HALCC2430RADIOP__INTERRUPTRFERR__...

HALCC2430RADIOP__INTERRUPTRFERR__FIRE...      ----- -----
  +--> ?CO?APP
  +--> ?PR?_HALCC2430RADIOP__STDOUT__PRINT?APP
  +--> ?PR?HALCC2430RADIOP__FLUSHBUFFERTASK_...

*** NEW ROOT ********************************

__VECTOR_16/APP                               E4B4H E4B7H
  +--> ?PR?__NESC_ATOMIC_START?APP
  +--> ?PR?HPLCC2430INTERRUPTSC__INTERRUPTCC...
  +--> ?PR?HPLCC2430INTERRUPTSC__INTERRUPTFI...
  +--> ?PR?HPLCC2430INTERRUPTSC__INTERRUPTTX...
  +--> ?PR?_HPLCC2430INTERRUPTSC__CAPTURESFD...
  +--> ?PR?___NESC_ATOMIC_END?APP

HPLCC2430INTERRUPTSC__INTERRUPTCCA__F...      ----- -----
  +--> ?PR?HPLCC2430INTERRUPTSC__INTERRUPTCC...

HPLCC2430INTERRUPTSC__INTERRUPTCCA__D...      ----- -----

HPLCC2430INTERRUPTSC__INTERRUPTFIFOP_...      ----- -----
  +--> ?PR?HALCC2430RADIOP__INTERRUPTFIFOP__...

HALCC2430RADIOP__INTERRUPTFIFOP__FIRE...      ----- -----
  +--> ?PR?HALCC2430RADIOP__RECEIVEDPACKETTA...

HPLCC2430INTERRUPTSC__INTERRUPTTXDONE...      ----- -----
  +--> ?PR?HALCC2430RADIOP__INTERRUPTTXDONE_...

HALCC2430RADIOP__INTERRUPTTXDONE__FIR...      ----- -----
  +--> ?PR?HALCC2430RADIOP__SENDPACKETDONETA...
  +--> ?CO?APP
  +--> ?PR?_HALCC2430RADIOP__STDOUT__PRINT?APP

HALCC2430RADIOP__SENDPACKETDONETASK__...      ----- -----
  +--> ?PR?_SCHEDULERBASICP__TASKBASIC__POST...

_HPLCC2430INTERRUPTSC__CAPTURESFD__CA...      ----- -----
  +--> ?PR?_HPLCC2430INTERRUPTSC__CAPTURESFD...

_HPLCC2430INTERRUPTSC__CAPTURESFD__DE...      E4B8H E4B9H

*** NEW ROOT ********************************

__VECTOR_2/APP                                ----- -----
  +--> ?PR?_HALCC2430SIMPLEUARTP__UART0__GET...

_HALCC2430SIMPLEUARTP__UART0__GET/APP         ----- -----
  +--> ?PR?_STDOUTM__UART__GET?APP

LX51 LINKER/LOCATER V4.41                                                             05/05/2013  02:08:26  PAGE 10


_STDOUTM__UART__GET/APP                       ----- -----
  +--> ?PR?_STDOUTM__STDOUT__GET?APP

_STDOUTM__STDOUT__GET/APP                     ----- -----
  +--> ?PR?_HALCC2430RADIOP__STDOUT__GET?APP

_HALCC2430RADIOP__STDOUT__GET/APP             E4BFH E4BFH

*** NEW ROOT ********************************

__VECTOR_7/APP                                E4C0H E4C0H
  +--> ?PR?__NESC_ATOMIC_START?APP
  +--> ?PR?___NESC_ATOMIC_END?APP
  +--> ?PR?HALCC2430SIMPLEUARTP__UART0__PUTD...

HALCC2430SIMPLEUARTP__UART0__PUTDONE/APP      ----- -----
  +--> ?PR?STDOUTM__UART__PUTDONE?APP

STDOUTM__UART__PUTDONE/APP                    E4C1H E4C1H
  +--> ?PR?__NESC_ATOMIC_START?APP
  +--> ?PR?_STDOUTM__UART__PUT?APP
  +--> ?PR?___NESC_ATOMIC_END?APP



PUBLIC SYMBOLS OF MODULE:  APP (?C_STARTUP)


      VALUE       CLASS    TYPE      PUBLIC SYMBOL NAME
      =================================================
      010003FAH   CODE     ---       ?C?CLDOPTR
      010003E1H   CODE     ---       ?C?CLDPTR
      00000000H   NUMBER   ---       ?C?CODESEG
      01000439H   CODE     ---       ?C?CSTOPTR
      01000427H   CODE     ---       ?C?CSTPTR
      010004C2H   CODE     ---       ?C?IILDX
      0100045BH   CODE     ---       ?C?IMUL
      010004D8H   CODE     ---       ?C?LSTXDATA
      010004E4H   CODE     ---       ?C?MEMSET
      0100046DH   CODE     ---       ?C?UIDIV
      00000000H   NUMBER   ---       ?C?XDATASEG
      01000760H   CODE     ---       ?C_START
      01000000H   CODE     ---       ?C_STARTUP
      01000D38H   CODE     ---       ___NESC_ATOMIC_END
      01000E2CH   CODE     ---       __NESC_ATOMIC_START
      01000964H   CODE     ---       __VECTOR_0
      0100067AH   CODE     ---       __VECTOR_16
      01000BD2H   CODE     ---       __VECTOR_2
      01000870H   CODE     ---       __VECTOR_7
      0200E09FH   XDATA    ---       HALCC2430RADIOP__CURRENTCHANNEL
      0200E49CH   XDATA    ---       HALCC2430RADIOP__FLUSHBUFFERTASKPOSTED
      0200E0ABH   XDATA    ---       HALCC2430RADIOP__FRAMELENGTH
      0200E0A3H   XDATA    ---       HALCC2430RADIOP__IEEEADDRESS
      0200E49DH   XDATA    ---       HALCC2430RADIOP__PANID
      0200E009H   XDATA    ---       HALCC2430RADIOP__RECEIVEDPACKET
      0200E0A0H   XDATA    ---       HALCC2430RADIOP__RECEIVEDPACKETPTR
      0200E08DH   XDATA    ---       HALCC2430RADIOP__RECEIVEDPACKETTASKPOSTED
      0200E004H   XDATA    ---       HALCC2430RADIOP__RECEIVEDPACKETTASKRETRIES
      0200E000H   XDATA    ---       HALCC2430RADIOP__RXENABLED
      0200E0ACH   XDATA    ---       HALCC2430RADIOP__SHORTADDRESS
      0200E498H   XDATA    ---       HALCC2430RADIOP__TRANSMITINPROGRESS
      0200E499H   XDATA    ---       HALCC2430RADIOP__TRANSMITPACKETPTR
      01000A1DH   CODE     ---       MAIN
      0200E08AH   XDATA    ---       PHYP__SENDERR
      0200E005H   XDATA    ---       RANDOMMLCGC__SEED
LX51 LINKER/LOCATER V4.41                                                             05/05/2013  02:08:26  PAGE 11


      0200E49FH   XDATA    ---       SCHEDULERBASICP__M_HEAD
      0200E093H   XDATA    ---       SCHEDULERBASICP__M_NEXT
      0200E089H   XDATA    ---       SCHEDULERBASICP__M_TAIL
      0200E0B0H   XDATA    ---       STDOUTM__BUFFER
      0200E09CH   XDATA    ---       STDOUTM__BUFFEREND
      0200E001H   XDATA    ---       STDOUTM__BUFFERHEAD
      0200E08EH   XDATA    ---       STDOUTM__BUFFERTAIL
      0200E091H   XDATA    ---       STDOUTM__COUNT
      0200E08BH   XDATA    ---       STDOUTM__ISOUTPUTTING
      0200E0AEH   XDATA    ---       TOS_NODE_ID



SYMBOL TABLE OF MODULE:  APP (?C_STARTUP)

      VALUE       REP       CLASS    TYPE      SYMBOL NAME
      ====================================================
      ---         MODULE    ---      ---       ?C_STARTUP
      01000000H   PUBLIC    CODE     ---       ?C_STARTUP
      000000E0H   SYMBOL    DATA     ---       ACC
      000000F0H   SYMBOL    DATA     ---       B
      00000083H   SYMBOL    DATA     ---       DPH
      00000082H   SYMBOL    DATA     ---       DPL
      00000000H   SYMBOL    NUMBER   ---       IBPSTACK
      00000100H   SYMBOL    NUMBER   ---       IBPSTACKTOP
      00000080H   SYMBOL    NUMBER   ---       IDATALEN
      0100071CH   SYMBOL    CODE     ---       IDATALOOP
      00000000H   SYMBOL    NUMBER   ---       PBPSTACK
      00000100H   SYMBOL    NUMBER   ---       PBPSTACKTOP
      00000000H   SYMBOL    NUMBER   ---       PDATALEN
      00000000H   SYMBOL    NUMBER   ---       PDATASTART
      00000000H   SYMBOL    NUMBER   ---       PPAGE
      00000000H   SYMBOL    NUMBER   ---       PPAGEENABLE
      000000A0H   SYMBOL    DATA     ---       PPAGE_SFR
      00000081H   SYMBOL    DATA     ---       SP
      01000719H   SYMBOL    CODE     ---       STARTUP1
      00000000H   SYMBOL    NUMBER   ---       XBPSTACK
      00000000H   SYMBOL    NUMBER   ---       XBPSTACKTOP
      00000000H   SYMBOL    NUMBER   ---       XDATALEN
      00000000H   SYMBOL    NUMBER   ---       XDATASTART
      01000000H   LINE      CODE     ---       #126
      01000719H   LINE      CODE     ---       #133
      0100071BH   LINE      CODE     ---       #134
      0100071CH   LINE      CODE     ---       #135
      0100071DH   LINE      CODE     ---       #136
      0100071FH   LINE      CODE     ---       #185
      01000722H   LINE      CODE     ---       #196

      ---         MODULE    ---      ---       APP
      0200E49FH   PUBLIC    XDATA    ---       SCHEDULERBASICP__M_HEAD
      0200E49DH   PUBLIC    XDATA    ---       HALCC2430RADIOP__PANID
      0200E49CH   PUBLIC    XDATA    ---       HALCC2430RADIOP__FLUSHBUFFERTASKPOSTED
      0200E499H   PUBLIC    XDATA    ---       HALCC2430RADIOP__TRANSMITPACKETPTR
      0200E498H   PUBLIC    XDATA    ---       HALCC2430RADIOP__TRANSMITINPROGRESS
      0200E0B0H   PUBLIC    XDATA    ---       STDOUTM__BUFFER
      0200E0AEH   PUBLIC    XDATA    ---       TOS_NODE_ID
      0200E0ACH   PUBLIC    XDATA    ---       HALCC2430RADIOP__SHORTADDRESS
      0200E0ABH   PUBLIC    XDATA    ---       HALCC2430RADIOP__FRAMELENGTH
      0200E0A3H   PUBLIC    XDATA    ---       HALCC2430RADIOP__IEEEADDRESS
      0200E0A0H   PUBLIC    XDATA    ---       HALCC2430RADIOP__RECEIVEDPACKETPTR
      0200E09FH   PUBLIC    XDATA    ---       HALCC2430RADIOP__CURRENTCHANNEL
      0200E09CH   PUBLIC    XDATA    ---       STDOUTM__BUFFEREND
      0200E093H   PUBLIC    XDATA    ---       SCHEDULERBASICP__M_NEXT
      0200E091H   PUBLIC    XDATA    ---       STDOUTM__COUNT
      0200E08EH   PUBLIC    XDATA    ---       STDOUTM__BUFFERTAIL
LX51 LINKER/LOCATER V4.41                                                             05/05/2013  02:08:26  PAGE 12


      0200E08DH   PUBLIC    XDATA    ---       HALCC2430RADIOP__RECEIVEDPACKETTASKPOSTED
      0200E08BH   PUBLIC    XDATA    ---       STDOUTM__ISOUTPUTTING
      0200E08AH   PUBLIC    XDATA    ---       PHYP__SENDERR
      0200E089H   PUBLIC    XDATA    ---       SCHEDULERBASICP__M_TAIL
      0200E009H   PUBLIC    XDATA    ---       HALCC2430RADIOP__RECEIVEDPACKET
      0200E005H   PUBLIC    XDATA    ---       RANDOMMLCGC__SEED
      0200E004H   PUBLIC    XDATA    ---       HALCC2430RADIOP__RECEIVEDPACKETTASKRETRIES
      0200E001H   PUBLIC    XDATA    ---       STDOUTM__BUFFERHEAD
      0200E000H   PUBLIC    XDATA    ---       HALCC2430RADIOP__RXENABLED
      01000870H   PUBLIC    CODE     ---       __VECTOR_7
      01000BD2H   PUBLIC    CODE     ---       __VECTOR_2
      0100067AH   PUBLIC    CODE     ---       __VECTOR_16
      01000964H   PUBLIC    CODE     ---       __VECTOR_0
      01000A1DH   PUBLIC    CODE     ---       MAIN
      01000D38H   PUBLIC    CODE     ---       ___NESC_ATOMIC_END
      01000E2CH   PUBLIC    CODE     ---       __NESC_ATOMIC_START

      ---         MODULE    ---      ---       ?C_INIT
      01000760H   PUBLIC    CODE     ---       ?C_START

      ---         MODULE    ---      ---       ?C?CLDPTR
      010003E1H   PUBLIC    CODE     ---       ?C?CLDPTR

      ---         MODULE    ---      ---       ?C?CLDOPTR
      010003FAH   PUBLIC    CODE     ---       ?C?CLDOPTR

      ---         MODULE    ---      ---       ?C?CSTPTR
      01000427H   PUBLIC    CODE     ---       ?C?CSTPTR

      ---         MODULE    ---      ---       ?C?CSTOPTR
      01000439H   PUBLIC    CODE     ---       ?C?CSTOPTR

      ---         MODULE    ---      ---       ?C?IMUL
      0100045BH   PUBLIC    CODE     ---       ?C?IMUL

      ---         MODULE    ---      ---       ?C?UIDIV
      0100046DH   PUBLIC    CODE     ---       ?C?UIDIV

      ---         MODULE    ---      ---       ?C?IILDX
      010004C2H   PUBLIC    CODE     ---       ?C?IILDX

      ---         MODULE    ---      ---       ?C?LSTXDATA
      010004D8H   PUBLIC    CODE     ---       ?C?LSTXDATA

      ---         MODULE    ---      ---       ?C?MEMSET
      010004E4H   PUBLIC    CODE     ---       ?C?MEMSET



FUNCTION REGISTER MASKS


FUNCTION . . . . . . . . . . . . . . . . . REG MASK
=======================================================

___NESC_ATOMIC_END . . . . . . . . . . . . @0x18000800
__NESC_ATOMIC_START. . . . . . . . . . . . @0x18000880
__VECTOR_2 . . . . . . . . . . . . . . . . @0x0e000880
__VECTOR_7 . . . . . . . . . . . . . . . . @0x1e000cbf



*** WARNING L15: MULTIPLE CALL TO FUNCTION
    NAME:    _STDOUTM__STDOUT__PRINT/APP
    CALLER1: ?C_C51STARTUP
LX51 LINKER/LOCATER V4.41                                                             05/05/2013  02:08:26  PAGE 13


    CALLER2: __VECTOR_0/APP

*** WARNING L15: MULTIPLE CALL TO FUNCTION
    NAME:    _SCHEDULERBASICP__TASKBASIC__POSTTASK/APP
    CALLER1: ?C_C51STARTUP
    CALLER2: __VECTOR_0/APP

*** WARNING L15: MULTIPLE CALL TO FUNCTION
    NAME:    _SCHEDULERBASICP__TASKBASIC__POSTTASK/APP
    CALLER1: __VECTOR_0/APP
    CALLER2: __VECTOR_16/APP

*** WARNING L15: MULTIPLE CALL TO FUNCTION
    NAME:    _STDOUTM__STDOUT__PRINT/APP
    CALLER1: __VECTOR_0/APP
    CALLER2: __VECTOR_16/APP

Program Size: data=9.0 xdata=1218 const=0 code=3841
LX51 RUN COMPLETE.  4 WARNING(S),  0 ERROR(S)
